target datalayout = "e-m:e-p270:32:32-p271:32:32-p272:64:64-i64:64-i128:128-f80:128-n8:16:32:64-S128"
target triple = "x86_64-pc-linux-gnu"

@os_setlocale.cat = internal constant [6 x i32] [i32 6, i32 3, i32 0, i32 4, i32 1, i32 2], align 16
@os_setlocale.catnames = internal constant [7 x ptr] [ptr @.str.26, ptr @.str.27, ptr @.str.28, ptr @.str.29, ptr @.str.30, ptr @.str.9, ptr null], align 16
@.str.26 = private unnamed_addr constant [4 x i8] c"all\00", align 1

; Function Attrs: nounwind uwtable
define internal i32 @os_setlocale(ptr noundef %0) #0 {
  %2 = alloca ptr, align 8
  %3 = alloca ptr, align 8
  %4 = alloca i32, align 4
  store ptr %0, ptr %2, align 8, !tbaa !4
  call void @llvm.lifetime.start.p0(i64 8, ptr %3) #9
  %5 = load ptr, ptr %2, align 8, !tbaa !4
  %6 = call ptr @luaL_optlstring(ptr noundef %5, i32 noundef 1, ptr noundef null, ptr noundef null)
  store ptr %6, ptr %3, align 8, !tbaa !9
  call void @llvm.lifetime.start.p0(i64 4, ptr %4) #9
  %7 = load ptr, ptr %2, align 8, !tbaa !4
  %8 = call i32 @luaL_checkoption(ptr noundef %7, i32 noundef 2, ptr noundef @.str.26, ptr noundef @os_setlocale.catnames)
  store i32 %8, ptr %4, align 4, !tbaa !20
  %9 = load ptr, ptr %2, align 8, !tbaa !4
  %10 = load i32, ptr %4, align 4, !tbaa !20
  %11 = sext i32 %10 to i64
  %12 = getelementptr inbounds [6 x i32], ptr @os_setlocale.cat, i64 0, i64 %11
  %13 = load i32, ptr %12, align 4, !tbaa !20
  %14 = load ptr, ptr %3, align 8, !tbaa !9
  %15 = call ptr @setlocale(i32 noundef %13, ptr noundef %14) #9
  %16 = call ptr @lua_pushstring(ptr noundef %9, ptr noundef %15)
  call void @llvm.lifetime.end.p0(i64 4, ptr %4) #9
  call void @llvm.lifetime.end.p0(i64 8, ptr %3) #9
  ret i32 1
}